; Function Attrs: mustprogress nofree norecurse nosync nounwind willreturn memory(read, inaccessiblemem: none) uwtable
define hidden i32 @mbedtls_pk_get_type(ptr noundef readonly %0) local_unnamed_addr #5 {
  %2 = icmp eq ptr %0, null
  br i1 %2, label %8, label %3

3:                                                ; preds = %1
  %4 = load ptr, ptr %0, align 8, !tbaa !3
  %5 = icmp eq ptr %4, null
  br i1 %5, label %8, label %6

6:                                                ; preds = %3
  %7 = load i32, ptr %4, align 8, !tbaa !21
  br label %8

8:                                                ; preds = %1, %3, %6
  %.0 = phi i32 [ %7, %6 ], [ 0, %3 ], [ 0, %1 ]
  ret i32 %.0
}